; Function Attrs: nounwind uwtable
define dso_local void @sentinelFailoverWaitPromotion(ptr noundef captures(address_is_null) %0) local_unnamed_addr #0 {
  %2 = tail call i64 @mstime() #30
  %3 = getelementptr inbounds nuw i8, ptr %0, i64 280
  %4 = load i64, ptr %3, align 8, !tbaa !243
  %5 = sub nsw i64 %2, %4
  %6 = getelementptr inbounds nuw i8, ptr %0, i64 296
  %7 = load i64, ptr %6, align 8, !tbaa !164
  %8 = icmp sgt i64 %5, %7
  br i1 %8, label %9, label %sentinelAbortFailover.exit

9:                                                ; preds = %1
  tail call void (i32, ptr, ptr, ptr, ...) @sentinelEvent(i32 noundef 3, ptr noundef nonnull @.str.435, ptr noundef nonnull %0, ptr noundef nonnull @.str.54)
  %10 = load i32, ptr %0, align 8, !tbaa !34
  %11 = and i32 %10, 64
  %.not.i = icmp eq i32 %11, 0
  br i1 %.not.i, label %12, label %13, !prof !144

12:                                               ; preds = %9
  tail call void @_serverAssert(ptr noundef nonnull @.str.442, ptr noundef nonnull @.str.21, i32 noundef 5340) #30
  tail call void @abort() #35
  unreachable

13:                                               ; preds = %9
  %14 = getelementptr inbounds nuw i8, ptr %0, i64 272
  %15 = load i32, ptr %14, align 8, !tbaa !169
  %16 = icmp slt i32 %15, 5
  br i1 %16, label %18, label %17, !prof !103

17:                                               ; preds = %13
  tail call void @_serverAssert(ptr noundef nonnull @.str.443, ptr noundef nonnull @.str.21, i32 noundef 5341) #30
  tail call void @abort() #35
  unreachable

18:                                               ; preds = %13
  %19 = and i32 %10, -2113
  store i32 %19, ptr %0, align 8, !tbaa !34
  store i32 0, ptr %14, align 8, !tbaa !169
  %20 = tail call i64 @mstime() #30
  store i64 %20, ptr %3, align 8, !tbaa !243
  %21 = getelementptr inbounds nuw i8, ptr %0, i64 312
  %22 = load ptr, ptr %21, align 8, !tbaa !36
  %.not8.i = icmp eq ptr %22, null
  br i1 %.not8.i, label %sentinelAbortFailover.exit, label %23

23:                                               ; preds = %18
  %24 = load i32, ptr %22, align 8, !tbaa !34
  %25 = and i32 %24, -129
  store i32 %25, ptr %22, align 8, !tbaa !34
  store ptr null, ptr %21, align 8, !tbaa !36
  br label %sentinelAbortFailover.exit

sentinelAbortFailover.exit:                       ; preds = %23, %18, %1
  ret void
}